; ModuleID = 'bench/nuttx/original/lib_stpcpy.c.ll'
source_filename = "bench/nuttx/original/lib_stpcpy.c.ll"
target datalayout = "e-m:e-p270:32:32-p271:32:32-p272:64:64-i64:64-i128:128-f80:128-n8:16:32:64-S128"
target triple = "x86_64-pc-linux-gnu"

; Function Attrs: nofree norecurse nosync nounwind memory(argmem: readwrite) uwtable
define noundef ptr @stpcpy(ptr noundef writeonly %0, ptr noundef readonly captures(none) %1) local_unnamed_addr #0 {
  br label %3

3:                                                ; preds = %3, %2
  %.03 = phi ptr [ %0, %2 ], [ %6, %3 ]
  %.0 = phi ptr [ %1, %2 ], [ %4, %3 ]
  %4 = getelementptr inbounds nuw i8, ptr %.0, i64 1
  %5 = load i8, ptr %.0, align 1
  %6 = getelementptr inbounds nuw i8, ptr %.03, i64 1
  store i8 %5, ptr %.03, align 1
  %.not = icmp eq i8 %5, 0
  br i1 %.not, label %7, label %3, !llvm.loop !6

7:                                                ; preds = %3
  ret ptr %.03
}


!llvm.module.flags = !{!0, !1, !2, !3, !4, !5}

!0 = !{i32 7, !"Dwarf Version", i32 5}
!1 = !{i32 2, !"Debug Info Version", i32 3}
!2 = !{i32 1, !"wchar_size", i32 4}
!3 = !{i32 8, !"PIC Level", i32 2}
!4 = !{i32 7, !"uwtable", i32 2}
!5 = !{i32 7, !"frame-pointer", i32 2}
!6 = distinct !{!6, !7}
!7 = !{!"llvm.loop.mustprogress"}
